Certificate Request:
    Data:
        Version: 0 (0x0)
        Subject: C=US, ST=New York, L=New York City, O=Global Security, OU=IT Department, CN=example.com
        Subject Public Key Info:
            Public Key Algorithm: rsaEncryption
                Public-Key: (2048 bit)
                Modulus:
                    00:f3:76:5b:07:4e:f4:e0:88:86:be:e8:0f:eb:63:
                    91:94:4f:25:14:d9:f5:ae:c3:73:35:2b:e6:61:3a:
                    48:4e:e9:1c:4e:a2:33:d8:64:4d:a4:a9:67:5e:82:
                    29:54:23:cf:fa:92:55:65:19:21:9a:4b:9e:17:5f:
                    82:97:f1:f1:bb:e2:d2:04:37:ca:42:ce:b9:a3:5b:
                    c9:21:05:a2:0b:de:ca:4c:fe:ad:58:d7:27:ab:1f:
                    e4:0a:99:dd:c8:55:eb:7e:65:a0:99:05:49:ce:88:
                    45:98:78:61:05:4b:88:d6:48:63:34:bd:99:62:b2:
                    03:d6:64:e2:30:b7:08:05:da:c6:cc:6e:62:16:a6:
                    1a:10:a9:9e:04:7b:0b:f6:d5:16:1f:fd:f4:b1:44:
                    42:6a:11:41:eb:aa:38:11:18:07:3a:c3:46:8f:a7:
                    ae:a8:51:a7:11:0e:20:94:4d:3c:45:75:06:eb:d4:
                    fb:34:bf:d4:15:00:57:62:14:c0:28:b1:e3:89:1d:
                    7c:20:42:92:47:db:92:28:09:e8:18:f2:5c:bd:ac:
                    b4:22:c7:9e:f5:49:18:19:c0:41:a9:f4:d2:a3:d1:
                    ae:f6:b4:b7:24:8a:2b:fc:a3:ab:1e:f1:69:d8:9b:
                    e2:b4:1c:25:80:62:f0:b9:ad:84:75:6e:c9:57:71:
                    1d:85
                Exponent: 65537 (0x10001)
        Attributes:
            a0:00
    Signature Algorithm: sha256WithRSAEncryption
         d2:6f:06:c8:55:ba:ee:e5:b5:6a:38:c5:7f:d4:8f:fb:51:80:
         41:a6:00:f4:24:92:9a:5b:de:39:f2:20:5a:4c:7a:6b:c1:ac:
         4e:fe:36:48:1d:36:35:f7:f2:ba:7c:e3:4f:be:f9:3d:6b:73:
         58:fa:99:08:8f:10:7b:dc:e3:3d:f3:6b:f5:40:72:64:42:1e:
         63:17:43:67:d9:30:06:fa:2a:34:ff:aa:3f:fa:25:25:53:8c:
         b8:f4:88:64:1b:ff:07:d5:f6:8e:8d:81:a0:35:78:25:f8:0a:
         ea:df:5b:00:06:83:24:df:ce:9d:f7:9b:8f:d2:9e:e3:7f:4d:
         98:6a:e7:23:3a:b1:15:ad:4c:57:62:12:46:10:df:6a:74:84:
         1e:3b:42:dd:a3:3d:51:78:22:80:25:02:20:07:31:1a:07:95:
         cf:78:1b:db:1f:6a:8a:90:b4:01:ae:8b:02:fb:e0:28:ac:2a:
         80:b4:e8:ea:d4:c6:24:29:e8:d5:b0:5e:5b:9a:bb:70:af:59:
         d0:c8:17:d2:51:63:ad:e7:d4:e3:e9:3c:b4:42:a8:07:9c:1a:
         c2:7b:50:ab:4d:52:91:ff:3a:4b:50:aa:70:87:73:fd:98:7f:
         3d:5e:b1:7a:10:31:98:4d:40:a4:bc:40:91:bb:17:08:ed:c9:
         4b:76:79:08
-----BEGIN CERTIFICATE REQUEST-----
MIICxjCCAa4CAQAwgYAxCzAJBgNVBAYTAlVTMREwDwYDVQQIDAhOZXcgWW9yazEW
MBQGA1UEBwwNTmV3IFlvcmsgQ2l0eTEYMBYGA1UECgwPR2xvYmFsIFNlY3VyaXR5
MRYwFAYDVQQLDA1JVCBEZXBhcnRtZW50MRQwEgYDVQQDDAtleGFtcGxlLmNvbTCC
ASIwDQYJKoZIhvcNAQEBBQADggEPADCCAQoCggEBAPN2WwdO9OCIhr7oD+tjkZRP
JRTZ9a7DczUr5mE6SE7pHE6iM9hkTaSpZ16CKVQjz/qSVWUZIZpLnhdfgpfx8bvi
0gQ3ykLOuaNbySEFogveykz+rVjXJ6sf5AqZ3chV635loJkFSc6IRZh4YQVLiNZI
YzS9mWKyA9Zk4jC3CAXaxsxuYhamGhCpngR7C/bVFh/99LFEQmoRQeuqOBEYBzrD
Ro+nrqhRpxEOIJRNPEV1BuvU+zS/1BUAV2IUwCix44kdfCBCkkfbkigJ6BjyXL2s
tCLHnvVJGBnAQan00qPRrva0tySKK/yjqx7xadib4rQcJYBi8LmthHVuyVdxHYUC
AwEAAaAAMA0GCSqGSIb3DQEBCwUAA4IBAQDSbwbIVbru5bVqOMV/1I/7UYBBpgD0
JJKaW9458iBaTHprwaxO/jZIHTY19/K6fONPvvk9a3NY+pkIjxB73OM982v1QHJk
Qh5jF0Nn2TAG+io0/6o/+iUlU4y49IhkG/8H1faOjYGgNXgl+Arq31sABoMk386d
95uP0p7jf02YaucjOrEVrUxXYhJGEN9qdIQeO0Ldoz1ReCKAJQIgBzEaB5XPeBvb
H2qKkLQBrosC++AorCqAtOjq1MYkKejVsF5bmrtwr1nQyBfSUWOt59Tj6Ty0QqgH
nBrCe1CrTVKR/zpLUKpwh3P9mH89XrF6EDGYTUCkvECRuxcI7clLdnkI
-----END CERTIFICATE REQUEST-----
